target datalayout = "e-m:e-p270:32:32-p271:32:32-p272:64:64-i64:64-i128:128-f80:128-n8:16:32:64-S128"
target triple = "x86_64-pc-linux-gnu"

%struct.srtm_item_st = type { ptr, ptr, ptr, i64, %struct.QUIC_STATELESS_RESET_TOKEN, [16 x i8] }
%struct.QUIC_STATELESS_RESET_TOKEN = type { [16 x i8] }

@.str = private unnamed_addr constant [32 x i8] c"../openssl/ssl/quic/quic_srtm.c\00", align 1

; Function Attrs: nounwind uwtable
define internal void @srtm_free_each(ptr noundef %0) #0 {
  %2 = alloca ptr, align 8
  %3 = alloca ptr, align 8
  %4 = alloca ptr, align 8
  store ptr %0, ptr %2, align 8, !tbaa !22
  call void @llvm.lifetime.start.p0(i64 8, ptr %3) #7
  call void @llvm.lifetime.start.p0(i64 8, ptr %4) #7
  %5 = load ptr, ptr %2, align 8, !tbaa !22
  store ptr %5, ptr %4, align 8, !tbaa !22
  %6 = load ptr, ptr %4, align 8, !tbaa !22
  %7 = getelementptr inbounds nuw %struct.srtm_item_st, ptr %6, i32 0, i32 1
  %8 = load ptr, ptr %7, align 8, !tbaa !30
  store ptr %8, ptr %4, align 8, !tbaa !22
  br label %9

9:                                                ; preds = %17, %1
  %10 = load ptr, ptr %4, align 8, !tbaa !22
  %11 = icmp ne ptr %10, null
  br i1 %11, label %12, label %19

12:                                               ; preds = %9
  %13 = load ptr, ptr %4, align 8, !tbaa !22
  %14 = getelementptr inbounds nuw %struct.srtm_item_st, ptr %13, i32 0, i32 1
  %15 = load ptr, ptr %14, align 8, !tbaa !30
  store ptr %15, ptr %3, align 8, !tbaa !22
  %16 = load ptr, ptr %4, align 8, !tbaa !22
  call void @CRYPTO_free(ptr noundef %16, ptr noundef @.str, i32 noundef 158)
  br label %17

17:                                               ; preds = %12
  %18 = load ptr, ptr %3, align 8, !tbaa !22
  store ptr %18, ptr %4, align 8, !tbaa !22
  br label %9, !llvm.loop !31

19:                                               ; preds = %9
  %20 = load ptr, ptr %2, align 8, !tbaa !22
  call void @CRYPTO_free(ptr noundef %20, ptr noundef @.str, i32 noundef 161)
  call void @llvm.lifetime.end.p0(i64 8, ptr %4) #7
  call void @llvm.lifetime.end.p0(i64 8, ptr %3) #7
  ret void
}