; Function Attrs: nounwind uwtable
define internal void @srtm_free_each(ptr noundef %0) #0 {
  %2 = getelementptr inbounds nuw i8, ptr %0, i64 8
  %3 = load ptr, ptr %2, align 8, !tbaa !18
  %.not7 = icmp eq ptr %3, null
  br i1 %.not7, label %._crit_edge, label %.lr.ph

.lr.ph:                                           ; preds = %1, %.lr.ph
  %.08 = phi ptr [ %5, %.lr.ph ], [ %3, %1 ]
  %4 = getelementptr inbounds nuw i8, ptr %.08, i64 8
  %5 = load ptr, ptr %4, align 8, !tbaa !18
  tail call void @CRYPTO_free(ptr noundef nonnull %.08, ptr noundef nonnull @.str, i32 noundef 158) #9
  %.not = icmp eq ptr %5, null
  br i1 %.not, label %._crit_edge, label %.lr.ph, !llvm.loop !19

._crit_edge:                                      ; preds = %.lr.ph, %1
  tail call void @CRYPTO_free(ptr noundef %0, ptr noundef nonnull @.str, i32 noundef 161) #9
  ret void
}